target datalayout = "e-m:e-p270:32:32-p271:32:32-p272:64:64-i64:64-i128:128-f80:128-n8:16:32:64-S128"
target triple = "x86_64-pc-linux-gnu"

%struct._generic_SUNAdaptController_Ops = type { ptr, ptr, ptr, ptr, ptr, ptr, ptr, ptr, ptr, ptr, ptr }
%struct._generic_SUNAdaptController = type { ptr, ptr, ptr }

; Function Attrs: nounwind uwtable
define i32 @SUNAdaptController_Space(ptr noundef %0, ptr noundef %1, ptr noundef %2) #0 {
  %4 = alloca i32, align 4
  %5 = alloca ptr, align 8
  %6 = alloca ptr, align 8
  %7 = alloca ptr, align 8
  %8 = alloca i32, align 4
  %9 = alloca i32, align 4
  %10 = alloca ptr, align 8
  store ptr %0, ptr %5, align 8, !tbaa !8
  store ptr %1, ptr %6, align 8, !tbaa !36
  store ptr %2, ptr %7, align 8, !tbaa !36
  call void @llvm.lifetime.start.p0(i64 4, ptr %8) #4
  store i32 0, ptr %8, align 4, !tbaa !30
  %11 = load ptr, ptr %5, align 8, !tbaa !8
  %12 = icmp eq ptr %11, null
  br i1 %12, label %13, label %14

13:                                               ; preds = %3
  store i32 -9999, ptr %4, align 4
  store i32 1, ptr %9, align 4
  br label %38

14:                                               ; preds = %3
  call void @llvm.lifetime.start.p0(i64 8, ptr %10) #4
  %15 = load ptr, ptr %5, align 8, !tbaa !8
  %16 = getelementptr inbounds nuw %struct._generic_SUNAdaptController, ptr %15, i32 0, i32 2
  %17 = load ptr, ptr %16, align 8, !tbaa !27
  store ptr %17, ptr %10, align 8, !tbaa !3
  %18 = load ptr, ptr %6, align 8, !tbaa !36
  store i64 0, ptr %18, align 8, !tbaa !38
  %19 = load ptr, ptr %7, align 8, !tbaa !36
  store i64 0, ptr %19, align 8, !tbaa !38
  %20 = load ptr, ptr %5, align 8, !tbaa !8
  %21 = getelementptr inbounds nuw %struct._generic_SUNAdaptController, ptr %20, i32 0, i32 1
  %22 = load ptr, ptr %21, align 8, !tbaa !24
  %23 = getelementptr inbounds nuw %struct._generic_SUNAdaptController_Ops, ptr %22, i32 0, i32 10
  %24 = load ptr, ptr %23, align 8, !tbaa !23
  %25 = icmp ne ptr %24, null
  br i1 %25, label %26, label %36

26:                                               ; preds = %14
  %27 = load ptr, ptr %5, align 8, !tbaa !8
  %28 = getelementptr inbounds nuw %struct._generic_SUNAdaptController, ptr %27, i32 0, i32 1
  %29 = load ptr, ptr %28, align 8, !tbaa !24
  %30 = getelementptr inbounds nuw %struct._generic_SUNAdaptController_Ops, ptr %29, i32 0, i32 10
  %31 = load ptr, ptr %30, align 8, !tbaa !23
  %32 = load ptr, ptr %5, align 8, !tbaa !8
  %33 = load ptr, ptr %6, align 8, !tbaa !36
  %34 = load ptr, ptr %7, align 8, !tbaa !36
  %35 = call i32 %31(ptr noundef %32, ptr noundef %33, ptr noundef %34)
  store i32 %35, ptr %8, align 4, !tbaa !30
  br label %36

36:                                               ; preds = %26, %14
  %37 = load i32, ptr %8, align 4, !tbaa !30
  store i32 %37, ptr %4, align 4
  store i32 1, ptr %9, align 4
  call void @llvm.lifetime.end.p0(i64 8, ptr %10) #4
  br label %38

38:                                               ; preds = %36, %13
  call void @llvm.lifetime.end.p0(i64 4, ptr %8) #4
  %39 = load i32, ptr %4, align 4
  ret i32 %39
}