; Function Attrs: nounwind uwtable
define i32 @SUNAdaptController_Space(ptr noundef %0, ptr noundef %1, ptr noundef %2) local_unnamed_addr #4 {
  %4 = icmp eq ptr %0, null
  br i1 %4, label %12, label %5

5:                                                ; preds = %3
  store i64 0, ptr %1, align 8, !tbaa !25
  store i64 0, ptr %2, align 8, !tbaa !25
  %6 = getelementptr inbounds nuw i8, ptr %0, i64 8
  %7 = load ptr, ptr %6, align 8, !tbaa !3
  %8 = getelementptr inbounds nuw i8, ptr %7, i64 80
  %9 = load ptr, ptr %8, align 8, !tbaa !27
  %.not = icmp eq ptr %9, null
  br i1 %.not, label %12, label %10

10:                                               ; preds = %5
  %11 = tail call i32 %9(ptr noundef nonnull %0, ptr noundef nonnull %1, ptr noundef nonnull %2) #7
  br label %12

12:                                               ; preds = %5, %10, %3
  %.0 = phi i32 [ -9999, %3 ], [ %11, %10 ], [ 0, %5 ]
  ret i32 %.0
}